target datalayout = "e-m:e-p270:32:32-p271:32:32-p272:64:64-i64:64-i128:128-f80:128-n8:16:32:64-S128"
target triple = "x86_64-pc-linux-gnu"

%struct.ossl_item_st = type { i32, ptr }

; Function Attrs: nounwind uwtable
define ptr @ossl_ec_check_group_type_id2name(i32 noundef %0) #0 {
  %2 = alloca ptr, align 8
  %3 = alloca i32, align 4
  %4 = alloca i64, align 8
  %5 = alloca i64, align 8
  %6 = alloca i32, align 4
  store i32 %0, ptr %3, align 4, !tbaa !16
  call void @llvm.lifetime.start.p0(i64 8, ptr %4) #3
  call void @llvm.lifetime.start.p0(i64 8, ptr %5) #3
  store i64 0, ptr %4, align 8, !tbaa !8
  store i64 3, ptr %5, align 8, !tbaa !8
  br label %7

7:                                                ; preds = %24, %1
  %8 = load i64, ptr %4, align 8, !tbaa !8
  %9 = load i64, ptr %5, align 8, !tbaa !8
  %10 = icmp ult i64 %8, %9
  br i1 %10, label %11, label %27

11:                                               ; preds = %7
  %12 = load i32, ptr %3, align 4, !tbaa !16
  %13 = load i64, ptr %4, align 8, !tbaa !8
  %14 = getelementptr inbounds nuw [3 x %struct.ossl_item_st], ptr @check_group_type_nameid_map, i64 0, i64 %13
  %15 = getelementptr inbounds nuw %struct.ossl_item_st, ptr %14, i32 0, i32 0
  %16 = load i32, ptr %15, align 16, !tbaa !13
  %17 = icmp eq i32 %12, %16
  br i1 %17, label %18, label %23

18:                                               ; preds = %11
  %19 = load i64, ptr %4, align 8, !tbaa !8
  %20 = getelementptr inbounds nuw [3 x %struct.ossl_item_st], ptr @check_group_type_nameid_map, i64 0, i64 %19
  %21 = getelementptr inbounds nuw %struct.ossl_item_st, ptr %20, i32 0, i32 1
  %22 = load ptr, ptr %21, align 8, !tbaa !10
  store ptr %22, ptr %2, align 8
  store i32 1, ptr %6, align 4
  br label %28

23:                                               ; preds = %11
  br label %24

24:                                               ; preds = %23
  %25 = load i64, ptr %4, align 8, !tbaa !8
  %26 = add i64 %25, 1
  store i64 %26, ptr %4, align 8, !tbaa !8
  br label %7, !llvm.loop !17

27:                                               ; preds = %7
  store ptr null, ptr %2, align 8
  store i32 1, ptr %6, align 4
  br label %28

28:                                               ; preds = %27, %18
  call void @llvm.lifetime.end.p0(i64 8, ptr %5) #3
  call void @llvm.lifetime.end.p0(i64 8, ptr %4) #3
  %29 = load ptr, ptr %2, align 8
  ret ptr %29
}